target datalayout = "e-m:e-p270:32:32-p271:32:32-p272:64:64-i64:64-i128:128-f80:128-n8:16:32:64-S128"
target triple = "x86_64-pc-linux-gnu"

%struct.HTable = type { i32, ptr }
%struct.Path_ = type { %union.SourceSpan, ptr, i32 }
%union.SourceSpan = type { i64 }
%struct.Vmem = type { ptr, i64, i64 }
%struct.CompilationUnit_ = type { ptr, ptr, ptr, ptr, ptr, ptr, ptr, ptr, ptr, ptr, i32, ptr, i8, i8, i8, i8, ptr, ptr, ptr, ptr, ptr, ptr, ptr, ptr, ptr, ptr, ptr, ptr, %struct.HTable, i32, ptr, ptr, %struct.anon.85 }
%struct.anon.85 = type { ptr, ptr }
%struct.VHeader_ = type { i32, i32, [0 x i8] }
%struct.Decl_ = type { ptr, ptr, %union.SourceSpan, i64, %union.anon, i32, %union.anon.0, i64, ptr, ptr, ptr, %union.anon.1 }
%union.anon = type { ptr }
%union.anon.0 = type { i16 }
%union.anon.1 = type { %struct.FuncDecl }
%struct.FuncDecl = type { i32, [4 x i8], %struct.Signature_, i32, i32, %union.anon.8 }
%struct.Signature_ = type <{ %struct.CalleeAttributes, i16, i8, i32, i32, [4 x i8], ptr }>
%struct.CalleeAttributes = type { i8 }
%union.anon.8 = type { %struct.anon.9 }
%struct.anon.9 = type { i16, %union.anon.10 }
%union.anon.10 = type { ptr }
%struct.ImportDecl = type { ptr, i8, ptr }

@.str.7 = private unnamed_addr constant [77 x i8] c"A module is not expected to have any uppercase characters, please change it.\00", align 1
@decl_arena = external global %struct.Vmem, align 8

; Function Attrs: nounwind uwtable
define internal ptr @vec_new_(i64 noundef %0, i64 noundef %1) #0 {
  %3 = alloca i64, align 8
  %4 = alloca i64, align 8
  %5 = alloca ptr, align 8
  store i64 %0, ptr %3, align 8
  store i64 %1, ptr %4, align 8
  %6 = load i64, ptr %3, align 8
  %7 = load i64, ptr %4, align 8
  %8 = mul i64 %6, %7
  %9 = add i64 %8, 8
  %10 = call ptr @calloc_arena(i64 noundef %9)
  store ptr %10, ptr %5, align 8
  %11 = load i64, ptr %4, align 8
  %12 = trunc i64 %11 to i32
  %13 = load ptr, ptr %5, align 8
  %14 = getelementptr inbounds %struct.VHeader_, ptr %13, i32 0, i32 1
  store i32 %12, ptr %14, align 4
  %15 = load ptr, ptr %5, align 8
  ret ptr %15
}

; Function Attrs: nounwind uwtable
define internal ptr @expand_(ptr noundef %0, i64 noundef %1) #0 {
  %3 = alloca ptr, align 8
  %4 = alloca i64, align 8
  %5 = alloca ptr, align 8
  %6 = alloca ptr, align 8
  %7 = alloca i64, align 8
  store ptr %0, ptr %3, align 8
  store i64 %1, ptr %4, align 8
  %8 = load ptr, ptr %3, align 8
  %9 = icmp ne ptr %8, null
  br i1 %9, label %13, label %10

10:                                               ; preds = %2
  %11 = load i64, ptr %4, align 8
  %12 = call ptr @vec_new_(i64 noundef %11, i64 noundef 8)
  store ptr %12, ptr %5, align 8
  br label %16

13:                                               ; preds = %2
  %14 = load ptr, ptr %3, align 8
  %15 = getelementptr inbounds %struct.VHeader_, ptr %14, i64 -1
  store ptr %15, ptr %5, align 8
  br label %16

16:                                               ; preds = %13, %10
  %17 = load ptr, ptr %5, align 8
  %18 = getelementptr inbounds %struct.VHeader_, ptr %17, i32 0, i32 0
  %19 = load i32, ptr %18, align 4
  %20 = load ptr, ptr %5, align 8
  %21 = getelementptr inbounds %struct.VHeader_, ptr %20, i32 0, i32 1
  %22 = load i32, ptr %21, align 4
  %23 = icmp eq i32 %19, %22
  br i1 %23, label %24, label %49

24:                                               ; preds = %16
  %25 = load i64, ptr %4, align 8
  %26 = load ptr, ptr %5, align 8
  %27 = getelementptr inbounds %struct.VHeader_, ptr %26, i32 0, i32 1
  %28 = load i32, ptr %27, align 4
  %29 = shl i32 %28, 1
  %30 = zext i32 %29 to i64
  %31 = call ptr @vec_new_(i64 noundef %25, i64 noundef %30)
  store ptr %31, ptr %6, align 8
  %32 = load i64, ptr %4, align 8
  %33 = load ptr, ptr %5, align 8
  %34 = getelementptr inbounds %struct.VHeader_, ptr %33, i32 0, i32 1
  %35 = load i32, ptr %34, align 4
  %36 = zext i32 %35 to i64
  %37 = mul i64 %32, %36
  %38 = add i64 %37, 8
  store i64 %38, ptr %7, align 8
  %39 = load ptr, ptr %6, align 8
  %40 = load ptr, ptr %5, align 8
  %41 = load i64, ptr %7, align 8
  call void @llvm.memcpy.p0.p0.i64(ptr align 4 %39, ptr align 4 %40, i64 %41, i1 false)
  %42 = load ptr, ptr %6, align 8
  store ptr %42, ptr %5, align 8
  %43 = load ptr, ptr %5, align 8
  %44 = getelementptr inbounds %struct.VHeader_, ptr %43, i32 0, i32 1
  %45 = load i32, ptr %44, align 4
  %46 = shl i32 %45, 1
  %47 = load ptr, ptr %6, align 8
  %48 = getelementptr inbounds %struct.VHeader_, ptr %47, i32 0, i32 1
  store i32 %46, ptr %48, align 4
  br label %49

49:                                               ; preds = %24, %16
  %50 = load ptr, ptr %5, align 8
  %51 = getelementptr inbounds %struct.VHeader_, ptr %50, i32 0, i32 0
  %52 = load i32, ptr %51, align 4
  %53 = add i32 %52, 1
  store i32 %53, ptr %51, align 4
  %54 = load ptr, ptr %5, align 8
  %55 = getelementptr inbounds %struct.VHeader_, ptr %54, i64 1
  ret ptr %55
}

; Function Attrs: nounwind uwtable
define internal ptr @decl_calloc() #0 {
  %1 = call ptr @vmem_alloc(ptr noundef @decl_arena, i64 noundef 136)
  ret ptr %1
}

; Function Attrs: nounwind uwtable
define dso_local zeroext i1 @unit_add_import(ptr noundef %0, ptr noundef %1, i1 noundef zeroext %2) #0 {
  %4 = alloca i32, align 4
  %5 = alloca ptr, align 8
  %6 = alloca ptr, align 8
  %7 = alloca i1, align 1
  %8 = alloca ptr, align 8
  %9 = alloca ptr, align 8
  %10 = alloca i8, align 1
  %11 = alloca ptr, align 8
  %12 = alloca ptr, align 8
  store ptr %0, ptr %8, align 8
  store ptr %1, ptr %9, align 8
  %13 = zext i1 %2 to i8
  store i8 %13, ptr %10, align 1
  br label %14

14:                                               ; preds = %3
  br label %15

15:                                               ; preds = %14
  %16 = load ptr, ptr %9, align 8
  %17 = getelementptr inbounds %struct.Path_, ptr %16, i32 0, i32 1
  %18 = load ptr, ptr %17, align 8
  %19 = call zeroext i1 @str_has_no_uppercase(ptr noundef %18)
  br i1 %19, label %25, label %20

20:                                               ; preds = %15
  %21 = load ptr, ptr %9, align 8
  %22 = getelementptr inbounds %struct.Path_, ptr %21, i32 0, i32 0
  %23 = getelementptr inbounds %union.SourceSpan, ptr %22, i32 0, i32 0
  %24 = load i64, ptr %23, align 8
  call void (i64, ptr, ...) @sema_error_at(i64 %24, ptr noundef @.str.7)
  store i1 false, ptr %7, align 1
  br label %77

25:                                               ; preds = %15
  %26 = call ptr @decl_calloc()
  store ptr %26, ptr %11, align 8
  %27 = load ptr, ptr %11, align 8
  %28 = getelementptr inbounds %struct.Decl_, ptr %27, i32 0, i32 2
  %29 = load ptr, ptr %9, align 8
  %30 = getelementptr inbounds %struct.Path_, ptr %29, i32 0, i32 0
  call void @llvm.memcpy.p0.p0.i64(ptr align 8 %28, ptr align 8 %30, i64 8, i1 false)
  %31 = load ptr, ptr %11, align 8
  %32 = getelementptr inbounds %struct.Decl_, ptr %31, i32 0, i32 3
  %33 = load i64, ptr %32, align 8
  %34 = and i64 %33, -128
  %35 = or i64 %34, 19
  store i64 %35, ptr %32, align 8
  %36 = load ptr, ptr %9, align 8
  %37 = load ptr, ptr %11, align 8
  %38 = getelementptr inbounds %struct.Decl_, ptr %37, i32 0, i32 11
  %39 = getelementptr inbounds %struct.ImportDecl, ptr %38, i32 0, i32 0
  store ptr %36, ptr %39, align 8
  %40 = load i8, ptr %10, align 1
  %41 = trunc i8 %40 to i1
  %42 = load ptr, ptr %11, align 8
  %43 = getelementptr inbounds %struct.Decl_, ptr %42, i32 0, i32 11
  %44 = getelementptr inbounds %struct.ImportDecl, ptr %43, i32 0, i32 1
  %45 = zext i1 %41 to i8
  store i8 %45, ptr %44, align 8
  br label %46

46:                                               ; preds = %25
  %47 = load ptr, ptr %8, align 8
  %48 = getelementptr inbounds %struct.CompilationUnit_, ptr %47, i32 0, i32 2
  %49 = load ptr, ptr %48, align 8
  %50 = call ptr @expand_(ptr noundef %49, i64 noundef 8)
  store ptr %50, ptr %12, align 8
  %51 = load ptr, ptr %12, align 8
  %52 = load ptr, ptr %8, align 8
  %53 = getelementptr inbounds %struct.CompilationUnit_, ptr %52, i32 0, i32 2
  store ptr %51, ptr %53, align 8
  %54 = load ptr, ptr %11, align 8
  %55 = load ptr, ptr %8, align 8
  %56 = getelementptr inbounds %struct.CompilationUnit_, ptr %55, i32 0, i32 2
  %57 = load ptr, ptr %56, align 8
  %58 = load ptr, ptr %8, align 8
  %59 = getelementptr inbounds %struct.CompilationUnit_, ptr %58, i32 0, i32 2
  %60 = load ptr, ptr %59, align 8
  store ptr %60, ptr %5, align 8
  %61 = load ptr, ptr %5, align 8
  %62 = icmp ne ptr %61, null
  br i1 %62, label %64, label %63

63:                                               ; preds = %46
  store i32 0, ptr %4, align 4
  br label %69

64:                                               ; preds = %46
  %65 = load ptr, ptr %5, align 8
  store ptr %65, ptr %6, align 8
  %66 = load ptr, ptr %6, align 8
  %67 = getelementptr inbounds %struct.VHeader_, ptr %66, i64 -1
  %68 = load i32, ptr %67, align 4
  store i32 %68, ptr %4, align 4
  br label %69

69:                                               ; preds = %64, %63
  %70 = load i32, ptr %4, align 4
  %71 = sub i32 %70, 1
  %72 = zext i32 %71 to i64
  %73 = getelementptr inbounds ptr, ptr %57, i64 %72
  store ptr %54, ptr %73, align 8
  br label %74

74:                                               ; preds = %69
  br label %75

75:                                               ; preds = %74
  br label %76

76:                                               ; preds = %75
  store i1 true, ptr %7, align 1
  br label %77

77:                                               ; preds = %76, %20
  %78 = load i1, ptr %7, align 1
  ret i1 %78
}