; Function Attrs: nounwind uwtable
define dso_local noundef zeroext i1 @unit_add_import(ptr nocapture noundef %0, ptr noundef %1, i1 noundef zeroext %2) local_unnamed_addr #0 {
  %4 = getelementptr inbounds i8, ptr %1, i64 8
  %5 = load ptr, ptr %4, align 8
  %6 = tail call zeroext i1 @str_has_no_uppercase(ptr noundef %5) #6
  br i1 %6, label %9, label %7

7:                                                ; preds = %3
  %8 = load i64, ptr %1, align 8
  tail call void (i64, ptr, ...) @sema_error_at(i64 %8, ptr noundef nonnull @.str.7) #6
  br label %53

9:                                                ; preds = %3
  %10 = zext i1 %2 to i8
  %11 = tail call ptr @vmem_alloc(ptr noundef nonnull @decl_arena, i64 noundef 136) #6
  %12 = getelementptr inbounds i8, ptr %11, i64 16
  %13 = load i64, ptr %1, align 8
  store i64 %13, ptr %12, align 8
  %14 = getelementptr inbounds i8, ptr %11, i64 24
  %15 = load i64, ptr %14, align 8
  %16 = and i64 %15, -128
  %17 = or disjoint i64 %16, 19
  store i64 %17, ptr %14, align 8
  %18 = getelementptr inbounds i8, ptr %11, i64 80
  store ptr %1, ptr %18, align 8
  %19 = getelementptr inbounds i8, ptr %11, i64 88
  store i8 %10, ptr %19, align 8
  %20 = getelementptr inbounds i8, ptr %0, i64 16
  %21 = load ptr, ptr %20, align 8
  %.not.i = icmp eq ptr %21, null
  br i1 %.not.i, label %22, label %25

22:                                               ; preds = %9
  %23 = tail call ptr @calloc_arena(i64 noundef 72) #6
  %24 = getelementptr inbounds i8, ptr %23, i64 4
  store i32 8, ptr %24, align 4
  br label %27

25:                                               ; preds = %9
  %26 = getelementptr inbounds i8, ptr %21, i64 -8
  %.phi.trans.insert.i = getelementptr inbounds i8, ptr %21, i64 -4
  %.pre.i = load i32, ptr %.phi.trans.insert.i, align 4
  br label %27

27:                                               ; preds = %25, %22
  %28 = phi i32 [ %.pre.i, %25 ], [ 8, %22 ]
  %.0.i = phi ptr [ %26, %25 ], [ %23, %22 ]
  %29 = load i32, ptr %.0.i, align 4
  %30 = icmp eq i32 %29, %28
  br i1 %30, label %31, label %45

31:                                               ; preds = %27
  %32 = getelementptr inbounds i8, ptr %.0.i, i64 4
  %33 = shl i32 %28, 1
  %34 = zext i32 %33 to i64
  %35 = shl nuw nsw i64 %34, 3
  %36 = or disjoint i64 %35, 8
  %37 = tail call ptr @calloc_arena(i64 noundef %36) #6
  %38 = getelementptr inbounds i8, ptr %37, i64 4
  store i32 %33, ptr %38, align 4
  %39 = load i32, ptr %32, align 4
  %40 = zext i32 %39 to i64
  %41 = shl nuw nsw i64 %40, 3
  %42 = add nuw nsw i64 %41, 8
  tail call void @llvm.memcpy.p0.p0.i64(ptr noundef nonnull align 4 dereferenceable(1) %37, ptr noundef nonnull align 4 dereferenceable(1) %.0.i, i64 %42, i1 false)
  %43 = load i32, ptr %38, align 4
  %44 = shl i32 %43, 1
  store i32 %44, ptr %38, align 4
  %.pre18.i = load i32, ptr %37, align 4
  br label %45

45:                                               ; preds = %27, %31
  %46 = phi i32 [ %.pre18.i, %31 ], [ %29, %27 ]
  %.1.i = phi ptr [ %37, %31 ], [ %.0.i, %27 ]
  %47 = add i32 %46, 1
  store i32 %47, ptr %.1.i, align 4
  %48 = getelementptr inbounds i8, ptr %.1.i, i64 8
  store ptr %48, ptr %20, align 8
  %49 = load i32, ptr %.1.i, align 4
  %50 = add i32 %49, -1
  %51 = zext i32 %50 to i64
  %52 = getelementptr inbounds ptr, ptr %48, i64 %51
  store ptr %11, ptr %52, align 8
  br label %53

53:                                               ; preds = %45, %7
  ret i1 %6
}